; Function Attrs: mustprogress nounwind uwtable
define internal fastcc void @_ZN12_GLOBAL__N_112StmtProfiler18VisitCXXTypeidExprEPKN5clang13CXXTypeidExprE(ptr noundef nonnull align 8 dereferenceable(18) %0, ptr noundef %1) unnamed_addr #0 align 2 {
  tail call fastcc void @_ZN12_GLOBAL__N_112StmtProfiler9VisitStmtEPKN5clang4StmtE(ptr noundef nonnull align 8 dereferenceable(18) %0, ptr noundef %1)
  %3 = getelementptr inbounds nuw i8, ptr %1, i64 16
  %.0.copyload.i.i.i.i.i.i.i.i.i = load i64, ptr %3, align 8
  %4 = and i64 %.0.copyload.i.i.i.i.i.i.i.i.i, 4
  %.not = icmp eq i64 %4, 0
  br i1 %.not, label %11, label %5

5:                                                ; preds = %2
  %6 = and i64 %.0.copyload.i.i.i.i.i.i.i.i.i, -8
  %7 = inttoptr i64 %6 to ptr
  %.sroa.0.0.copyload.i = load i64, ptr %7, align 8
  %8 = load ptr, ptr %0, align 8
  %9 = getelementptr inbounds nuw i8, ptr %8, i64 32
  %10 = load ptr, ptr %9, align 8
  tail call void %10(ptr noundef nonnull align 8 dereferenceable(18) %0, i64 %.sroa.0.0.copyload.i) #11
  br label %11

11:                                               ; preds = %5, %2
  ret void
}